target datalayout = "e-m:e-p270:32:32-p271:32:32-p272:64:64-i64:64-i128:128-f80:128-n8:16:32:64-S128"
target triple = "x86_64-pc-linux-gnu"

%"class.icu_77::GregorianCalendar" = type <{ %"class.icu_77::Calendar", double, i32, [4 x i8], double, i32, i8, i8, [2 x i8] }>
%"class.icu_77::Calendar" = type <{ %"class.icu_77::UObject", [24 x i32], [24 x i8], i8, [7 x i8], double, ptr, i8, i16, i8, i32, i32, i32, i8, i8, i16, [4 x i8], ptr, ptr }>
%"class.icu_77::UObject" = type { ptr }

; Function Attrs: inlinehint mustprogress uwtable
define linkonce_odr noundef i32 @_ZN6icu_775Grego14gregorianShiftEi(i32 noundef %0) #6 comdat align 2 {
  %2 = alloca i32, align 4
  %3 = alloca i64, align 8
  %4 = alloca i64, align 8
  store i32 %0, ptr %2, align 4, !tbaa !31
  call void @llvm.lifetime.start.p0(i64 8, ptr %3) #10
  %5 = load i32, ptr %2, align 4, !tbaa !31
  %6 = sext i32 %5 to i64
  %7 = sub nsw i64 %6, 1
  store i64 %7, ptr %3, align 8, !tbaa !43
  call void @llvm.lifetime.start.p0(i64 8, ptr %4) #10
  %8 = load i64, ptr %3, align 8, !tbaa !43
  %9 = call noundef i64 @_ZN6icu_779ClockMath16floorDivideInt64Ell(i64 noundef %8, i64 noundef 400)
  %10 = load i64, ptr %3, align 8, !tbaa !43
  %11 = call noundef i64 @_ZN6icu_779ClockMath16floorDivideInt64Ell(i64 noundef %10, i64 noundef 100)
  %12 = sub nsw i64 %9, %11
  %13 = add nsw i64 %12, 2
  store i64 %13, ptr %4, align 8, !tbaa !43
  %14 = load i64, ptr %4, align 8, !tbaa !43
  %15 = trunc i64 %14 to i32
  call void @llvm.lifetime.end.p0(i64 8, ptr %4) #10
  call void @llvm.lifetime.end.p0(i64 8, ptr %3) #10
  ret i32 %15
}

; Function Attrs: inlinehint mustprogress nounwind uwtable
define linkonce_odr noundef i32 @_ZNK6icu_778Calendar11internalGetE19UCalendarDateFields(ptr noundef nonnull align 8 dereferenceable(192) %0, i32 noundef %1) #4 comdat align 2 {
  %3 = alloca ptr, align 8
  %4 = alloca i32, align 4
  store ptr %0, ptr %3, align 8, !tbaa !32
  store i32 %1, ptr %4, align 4, !tbaa !45
  %5 = load ptr, ptr %3, align 8
  %6 = getelementptr inbounds nuw %"class.icu_77::Calendar", ptr %5, i32 0, i32 1
  %7 = load i32, ptr %4, align 4, !tbaa !45
  %8 = zext i32 %7 to i64
  %9 = getelementptr inbounds nuw [24 x i32], ptr %6, i64 0, i64 %8
  %10 = load i32, ptr %9, align 4, !tbaa !31
  ret i32 %10
}

; Function Attrs: inlinehint mustprogress nounwind uwtable
define internal noundef signext i8 @_ZL9U_FAILURE10UErrorCode(i32 noundef %0) #4 {
  %2 = alloca i32, align 4
  store i32 %0, ptr %2, align 4, !tbaa !35
  %3 = load i32, ptr %2, align 4, !tbaa !35
  %4 = icmp sgt i32 %3, 0
  %5 = zext i1 %4 to i8
  ret i8 %5
}

; Function Attrs: mustprogress uwtable
define noundef i32 @_ZN6icu_7717GregorianCalendar22handleComputeJulianDayE19UCalendarDateFieldsR10UErrorCode(ptr noundef nonnull align 8 dereferenceable(222) %0, i32 noundef %1, ptr noundef nonnull align 4 dereferenceable(4) %2) unnamed_addr #1 align 2 {
  %4 = alloca i32, align 4
  %5 = alloca ptr, align 8
  %6 = alloca i32, align 4
  %7 = alloca ptr, align 8
  %8 = alloca i32, align 4
  %9 = alloca i32, align 4
  %10 = alloca i32, align 4
  %11 = alloca i32, align 4
  store ptr %0, ptr %5, align 8, !tbaa !3
  store i32 %1, ptr %6, align 4, !tbaa !45
  store ptr %2, ptr %7, align 8, !tbaa !8
  %12 = load ptr, ptr %5, align 8
  %13 = getelementptr inbounds nuw %"class.icu_77::GregorianCalendar", ptr %12, i32 0, i32 7
  store i8 0, ptr %13, align 1, !tbaa !27
  call void @llvm.lifetime.start.p0(i64 4, ptr %8) #10
  %14 = load i32, ptr %6, align 4, !tbaa !45
  %15 = load ptr, ptr %7, align 8, !tbaa !8
  %16 = call noundef i32 @_ZN6icu_778Calendar22handleComputeJulianDayE19UCalendarDateFieldsR10UErrorCode(ptr noundef nonnull align 8 dereferenceable(192) %12, i32 noundef %14, ptr noundef nonnull align 4 dereferenceable(4) %15)
  store i32 %16, ptr %8, align 4, !tbaa !31
  %17 = load ptr, ptr %7, align 8, !tbaa !8
  %18 = load i32, ptr %17, align 4, !tbaa !35
  %19 = call noundef signext i8 @_ZL9U_FAILURE10UErrorCode(i32 noundef %18)
  %20 = icmp ne i8 %19, 0
  br i1 %20, label %21, label %22

21:                                               ; preds = %3
  store i32 0, ptr %4, align 4
  store i32 1, ptr %9, align 4
  br label %91

22:                                               ; preds = %3
  %23 = load i32, ptr %6, align 4, !tbaa !45
  %24 = icmp eq i32 %23, 3
  br i1 %24, label %25, label %40

25:                                               ; preds = %22
  %26 = call noundef i32 @_ZNK6icu_778Calendar11internalGetE19UCalendarDateFields(ptr noundef nonnull align 8 dereferenceable(192) %12, i32 noundef 19)
  %27 = getelementptr inbounds nuw %"class.icu_77::GregorianCalendar", ptr %12, i32 0, i32 5
  %28 = load i32, ptr %27, align 8, !tbaa !25
  %29 = icmp eq i32 %26, %28
  br i1 %29, label %30, label %40

30:                                               ; preds = %25
  %31 = load i32, ptr %8, align 4, !tbaa !31
  %32 = getelementptr inbounds nuw %"class.icu_77::GregorianCalendar", ptr %12, i32 0, i32 2
  %33 = load i32, ptr %32, align 8, !tbaa !23
  %34 = icmp sge i32 %31, %33
  br i1 %34, label %35, label %40

35:                                               ; preds = %30
  %36 = getelementptr inbounds nuw %"class.icu_77::GregorianCalendar", ptr %12, i32 0, i32 7
  store i8 1, ptr %36, align 1, !tbaa !27
  %37 = load i32, ptr %6, align 4, !tbaa !45
  %38 = load ptr, ptr %7, align 8, !tbaa !8
  %39 = call noundef i32 @_ZN6icu_778Calendar22handleComputeJulianDayE19UCalendarDateFieldsR10UErrorCode(ptr noundef nonnull align 8 dereferenceable(192) %12, i32 noundef %37, ptr noundef nonnull align 4 dereferenceable(4) %38)
  store i32 %39, ptr %4, align 4
  store i32 1, ptr %9, align 4
  br label %91

40:                                               ; preds = %30, %25, %22
  %41 = getelementptr inbounds nuw %"class.icu_77::GregorianCalendar", ptr %12, i32 0, i32 6
  %42 = load i8, ptr %41, align 4, !tbaa !26
  %43 = sext i8 %42 to i32
  %44 = load i32, ptr %8, align 4, !tbaa !31
  %45 = getelementptr inbounds nuw %"class.icu_77::GregorianCalendar", ptr %12, i32 0, i32 2
  %46 = load i32, ptr %45, align 8, !tbaa !23
  %47 = icmp sge i32 %44, %46
  %48 = zext i1 %47 to i32
  %49 = icmp ne i32 %43, %48
  br i1 %49, label %50, label %61

50:                                               ; preds = %40
  %51 = getelementptr inbounds nuw %"class.icu_77::GregorianCalendar", ptr %12, i32 0, i32 7
  store i8 1, ptr %51, align 1, !tbaa !27
  %52 = load i32, ptr %6, align 4, !tbaa !45
  %53 = load ptr, ptr %7, align 8, !tbaa !8
  %54 = call noundef i32 @_ZN6icu_778Calendar22handleComputeJulianDayE19UCalendarDateFieldsR10UErrorCode(ptr noundef nonnull align 8 dereferenceable(192) %12, i32 noundef %52, ptr noundef nonnull align 4 dereferenceable(4) %53)
  store i32 %54, ptr %8, align 4, !tbaa !31
  %55 = load ptr, ptr %7, align 8, !tbaa !8
  %56 = load i32, ptr %55, align 4, !tbaa !35
  %57 = call noundef signext i8 @_ZL9U_FAILURE10UErrorCode(i32 noundef %56)
  %58 = icmp ne i8 %57, 0
  br i1 %58, label %59, label %60

59:                                               ; preds = %50
  store i32 0, ptr %4, align 4
  store i32 1, ptr %9, align 4
  br label %91

60:                                               ; preds = %50
  br label %62

61:                                               ; preds = %40
  br label %62

62:                                               ; preds = %61, %60
  %63 = getelementptr inbounds nuw %"class.icu_77::GregorianCalendar", ptr %12, i32 0, i32 6
  %64 = load i8, ptr %63, align 4, !tbaa !26
  %65 = icmp ne i8 %64, 0
  br i1 %65, label %66, label %89

66:                                               ; preds = %62
  %67 = call noundef i32 @_ZNK6icu_778Calendar11internalGetE19UCalendarDateFields(ptr noundef nonnull align 8 dereferenceable(192) %12, i32 noundef 19)
  %68 = getelementptr inbounds nuw %"class.icu_77::GregorianCalendar", ptr %12, i32 0, i32 5
  %69 = load i32, ptr %68, align 8, !tbaa !25
  %70 = icmp eq i32 %67, %69
  br i1 %70, label %71, label %89

71:                                               ; preds = %66
  call void @llvm.lifetime.start.p0(i64 4, ptr %10) #10
  %72 = call noundef i32 @_ZNK6icu_778Calendar11internalGetE19UCalendarDateFields(ptr noundef nonnull align 8 dereferenceable(192) %12, i32 noundef 19)
  %73 = call noundef i32 @_ZN6icu_775Grego14gregorianShiftEi(i32 noundef %72)
  store i32 %73, ptr %10, align 4, !tbaa !31
  %74 = load i32, ptr %6, align 4, !tbaa !45
  %75 = icmp eq i32 %74, 6
  br i1 %75, label %76, label %80

76:                                               ; preds = %71
  %77 = load i32, ptr %10, align 4, !tbaa !31
  %78 = load i32, ptr %8, align 4, !tbaa !31
  %79 = sub nsw i32 %78, %77
  store i32 %79, ptr %8, align 4, !tbaa !31
  br label %88

80:                                               ; preds = %71
  %81 = load i32, ptr %6, align 4, !tbaa !45
  %82 = icmp eq i32 %81, 4
  br i1 %82, label %83, label %87

83:                                               ; preds = %80
  call void @llvm.lifetime.start.p0(i64 4, ptr %11) #10
  store i32 14, ptr %11, align 4, !tbaa !31
  %84 = load i32, ptr %11, align 4, !tbaa !31
  %85 = load i32, ptr %8, align 4, !tbaa !31
  %86 = add nsw i32 %85, %84
  store i32 %86, ptr %8, align 4, !tbaa !31
  call void @llvm.lifetime.end.p0(i64 4, ptr %11) #10
  br label %87

87:                                               ; preds = %83, %80
  br label %88

88:                                               ; preds = %87, %76
  call void @llvm.lifetime.end.p0(i64 4, ptr %10) #10
  br label %89

89:                                               ; preds = %88, %66, %62
  %90 = load i32, ptr %8, align 4, !tbaa !31
  store i32 %90, ptr %4, align 4
  store i32 1, ptr %9, align 4
  br label %91

91:                                               ; preds = %89, %59, %35, %21
  call void @llvm.lifetime.end.p0(i64 4, ptr %8) #10
  %92 = load i32, ptr %4, align 4
  ret i32 %92
}