; Function Attrs: mustprogress uwtable
define noundef i32 @_ZN6icu_7717GregorianCalendar22handleComputeJulianDayE19UCalendarDateFieldsR10UErrorCode(ptr noundef nonnull align 8 dereferenceable(222) initializes((221, 222)) %0, i32 noundef %1, ptr noundef nonnull align 4 dereferenceable(4) %2) unnamed_addr #1 align 2 {
  %4 = getelementptr inbounds nuw i8, ptr %0, i64 221
  store i8 0, ptr %4, align 1, !tbaa !24
  %5 = tail call noundef i32 @_ZN6icu_778Calendar22handleComputeJulianDayE19UCalendarDateFieldsR10UErrorCode(ptr noundef nonnull align 8 dereferenceable(192) %0, i32 noundef %1, ptr noundef nonnull align 4 dereferenceable(4) %2)
  %6 = load i32, ptr %2, align 4, !tbaa !25
  %7 = icmp slt i32 %6, 1
  br i1 %7, label %8, label %48

8:                                                ; preds = %3
  %9 = icmp eq i32 %1, 3
  br i1 %9, label %10, label %._crit_edge

._crit_edge:                                      ; preds = %8
  %.phi.trans.insert = getelementptr inbounds nuw i8, ptr %0, i64 200
  %.pre = load i32, ptr %.phi.trans.insert, align 8, !tbaa !20
  br label %20

10:                                               ; preds = %8
  %11 = getelementptr inbounds nuw i8, ptr %0, i64 84
  %12 = load i32, ptr %11, align 4, !tbaa !32
  %13 = getelementptr inbounds nuw i8, ptr %0, i64 216
  %14 = load i32, ptr %13, align 8, !tbaa !22
  %15 = icmp ne i32 %12, %14
  %16 = getelementptr inbounds nuw i8, ptr %0, i64 200
  %17 = load i32, ptr %16, align 8
  %.not22 = icmp slt i32 %5, %17
  %or.cond = select i1 %15, i1 true, i1 %.not22
  br i1 %or.cond, label %20, label %18

18:                                               ; preds = %10
  store i8 1, ptr %4, align 1, !tbaa !24
  %19 = tail call noundef i32 @_ZN6icu_778Calendar22handleComputeJulianDayE19UCalendarDateFieldsR10UErrorCode(ptr noundef nonnull align 8 dereferenceable(192) %0, i32 noundef 3, ptr noundef nonnull align 4 dereferenceable(4) %2)
  br label %48

20:                                               ; preds = %._crit_edge, %10
  %21 = phi i32 [ %.pre, %._crit_edge ], [ %17, %10 ]
  %22 = getelementptr inbounds nuw i8, ptr %0, i64 220
  %23 = load i8, ptr %22, align 4, !tbaa !23
  %24 = sext i8 %23 to i32
  %25 = icmp sge i32 %5, %21
  %26 = zext i1 %25 to i32
  %.not23 = icmp eq i32 %24, %26
  br i1 %.not23, label %31, label %27

27:                                               ; preds = %20
  store i8 1, ptr %4, align 1, !tbaa !24
  %28 = tail call noundef i32 @_ZN6icu_778Calendar22handleComputeJulianDayE19UCalendarDateFieldsR10UErrorCode(ptr noundef nonnull align 8 dereferenceable(192) %0, i32 noundef %1, ptr noundef nonnull align 4 dereferenceable(4) %2)
  %29 = load i32, ptr %2, align 4, !tbaa !25
  %30 = icmp slt i32 %29, 1
  br i1 %30, label %._crit_edge29, label %48

._crit_edge29:                                    ; preds = %27
  %.pre30 = load i8, ptr %22, align 4, !tbaa !23
  br label %31

31:                                               ; preds = %._crit_edge29, %20
  %32 = phi i8 [ %.pre30, %._crit_edge29 ], [ %23, %20 ]
  %.019 = phi i32 [ %28, %._crit_edge29 ], [ %5, %20 ]
  %.not25 = icmp eq i8 %32, 0
  br i1 %.not25, label %48, label %33

33:                                               ; preds = %31
  %34 = getelementptr inbounds nuw i8, ptr %0, i64 84
  %35 = load i32, ptr %34, align 4, !tbaa !32
  %36 = getelementptr inbounds nuw i8, ptr %0, i64 216
  %37 = load i32, ptr %36, align 8, !tbaa !22
  %38 = icmp eq i32 %35, %37
  br i1 %38, label %39, label %48

39:                                               ; preds = %33
  %40 = sext i32 %35 to i64
  %41 = add nsw i64 %40, -1
  %42 = tail call noundef i64 @_ZN6icu_779ClockMath16floorDivideInt64Ell(i64 noundef %41, i64 noundef 400)
  %43 = tail call noundef i64 @_ZN6icu_779ClockMath16floorDivideInt64Ell(i64 noundef %41, i64 noundef 100)
  switch i32 %1, label %48 [
    i32 6, label %44
    i32 4, label %46
  ]

44:                                               ; preds = %39
  %.neg = sub i64 %43, %42
  %.neg27 = trunc i64 %.neg to i32
  %.neg28 = add i32 %.019, -2
  %45 = add i32 %.neg28, %.neg27
  br label %48

46:                                               ; preds = %39
  %47 = add nsw i32 %.019, 14
  br label %48

48:                                               ; preds = %31, %33, %39, %46, %44, %27, %3, %18
  %.0 = phi i32 [ %19, %18 ], [ 0, %3 ], [ 0, %27 ], [ %.019, %33 ], [ %.019, %31 ], [ %45, %44 ], [ %47, %46 ], [ %.019, %39 ]
  ret i32 %.0
}